; Function Attrs: nounwind uwtable
define internal void @_blendop_blendif_feathering_callback(ptr readnone captures(none) %0, ptr noundef readonly %1) #0 {
  %3 = load ptr, ptr getelementptr inbounds nuw (i8, ptr @darktable, i64 104), align 8, !tbaa !33
  %4 = getelementptr inbounds nuw i8, ptr %3, i64 96
  %5 = load i32, ptr %4, align 8, !tbaa !66
  %6 = icmp eq i32 %5, 0
  %7 = icmp ne ptr %1, null
  %or.cond = and i1 %7, %6
  br i1 %or.cond, label %8, label %21

8:                                                ; preds = %2
  %9 = getelementptr inbounds nuw i8, ptr %1, i64 8
  %10 = load i32, ptr %9, align 8, !tbaa !142
  %.not = icmp eq i32 %10, 0
  br i1 %.not, label %21, label %11

11:                                               ; preds = %8
  %12 = getelementptr inbounds nuw i8, ptr %1, i64 32
  %13 = load ptr, ptr %12, align 8, !tbaa !79
  %14 = getelementptr inbounds nuw i8, ptr %13, i64 760
  %15 = load ptr, ptr %14, align 8, !tbaa !71
  %16 = getelementptr inbounds nuw i8, ptr %15, i64 56
  %17 = load i32, ptr %16, align 4, !tbaa !262
  %18 = icmp eq i32 %17, 0
  br i1 %18, label %19, label %21

19:                                               ; preds = %11
  store i32 1, ptr %16, align 4, !tbaa !262
  %20 = load ptr, ptr getelementptr inbounds nuw (i8, ptr @darktable, i64 64), align 8, !tbaa !119
  tail call void @dt_dev_add_history_item(ptr noundef %20, ptr noundef nonnull %13, i32 noundef 1) #18
  br label %21

21:                                               ; preds = %11, %19, %2, %8
  ret void
}